; ModuleID = 'source-C-CXX/52/1639.c'
source_filename = "source-C-CXX/52/1639.c"
target datalayout = "e-m:e-p270:32:32-p271:32:32-p272:64:64-i64:64-f80:128-n8:16:32:64-S128"
target triple = "x86_64-pc-linux-gnu"

@.str = private unnamed_addr constant [3 x i8] c"%d\00", align 1
@.str.1 = private unnamed_addr constant [4 x i8] c"%d,\00", align 1

; Function Attrs: nofree nounwind sspstrong uwtable
define dso_local i32 @main() local_unnamed_addr #0 {
  %1 = alloca i32, align 4
  %2 = alloca [300 x i32], align 16
  %3 = alloca [300 x i32], align 16
  %4 = bitcast i32* %1 to i8*
  call void @llvm.lifetime.start.p0i8(i64 4, i8* nonnull %4) #3
  %5 = bitcast [300 x i32]* %2 to i8*
  call void @llvm.lifetime.start.p0i8(i64 1200, i8* nonnull %5) #3
  %6 = bitcast [300 x i32]* %3 to i8*
  call void @llvm.lifetime.start.p0i8(i64 1200, i8* nonnull %6) #3
  %7 = call i32 (i8*, ...) @__isoc99_scanf(i8* getelementptr inbounds ([3 x i8], [3 x i8]* @.str, i64 0, i64 0), i32* nonnull %1)
  %8 = load i32, i32* %1, align 4, !tbaa !5
  %9 = icmp slt i32 %8, 1
  br i1 %9, label %113, label %10

10:                                               ; preds = %0, %10
  %11 = phi i64 [ %14, %10 ], [ 1, %0 ]
  %12 = getelementptr inbounds [300 x i32], [300 x i32]* %2, i64 0, i64 %11
  %13 = call i32 (i8*, ...) @__isoc99_scanf(i8* getelementptr inbounds ([3 x i8], [3 x i8]* @.str, i64 0, i64 0), i32* nonnull %12)
  %14 = add nuw nsw i64 %11, 1
  %15 = load i32, i32* %1, align 4, !tbaa !5
  %16 = sext i32 %15 to i64
  %17 = icmp slt i64 %11, %16
  br i1 %17, label %10, label %18, !llvm.loop !9

18:                                               ; preds = %10
  %19 = getelementptr inbounds [300 x i32], [300 x i32]* %2, i64 0, i64 1
  %20 = load i32, i32* %19, align 4, !tbaa !5
  %21 = getelementptr inbounds [300 x i32], [300 x i32]* %3, i64 0, i64 1
  store i32 %20, i32* %21, align 4, !tbaa !5
  %22 = icmp slt i32 %15, 1
  br i1 %22, label %113, label %23

23:                                               ; preds = %18
  %24 = add nuw i32 %15, 1
  %25 = zext i32 %24 to i64
  br label %26

26:                                               ; preds = %23, %92
  %27 = phi i64 [ 1, %23 ], [ %94, %92 ]
  %28 = phi i32 [ 1, %23 ], [ %93, %92 ]
  %29 = icmp slt i32 %28, 1
  br i1 %29, label %86, label %30

30:                                               ; preds = %26
  %31 = getelementptr inbounds [300 x i32], [300 x i32]* %2, i64 0, i64 %27
  %32 = load i32, i32* %31, align 4, !tbaa !5
  %33 = add nuw i32 %28, 1
  %34 = zext i32 %33 to i64
  %35 = add nsw i64 %34, -1
  %36 = add nsw i64 %34, -2
  %37 = and i64 %35, 3
  %38 = icmp ult i64 %36, 3
  br i1 %38, label %67, label %39

39:                                               ; preds = %30
  %40 = and i64 %35, -4
  br label %41

41:                                               ; preds = %41, %39
  %42 = phi i64 [ 1, %39 ], [ %64, %41 ]
  %43 = phi i32 [ 1, %39 ], [ %63, %41 ]
  %44 = phi i64 [ %40, %39 ], [ %65, %41 ]
  %45 = getelementptr inbounds [300 x i32], [300 x i32]* %3, i64 0, i64 %42
  %46 = load i32, i32* %45, align 4, !tbaa !5
  %47 = icmp eq i32 %32, %46
  %48 = add nuw nsw i64 %42, 1
  %49 = getelementptr inbounds [300 x i32], [300 x i32]* %3, i64 0, i64 %48
  %50 = load i32, i32* %49, align 4, !tbaa !5
  %51 = icmp eq i32 %32, %50
  %52 = add nuw nsw i64 %42, 2
  %53 = getelementptr inbounds [300 x i32], [300 x i32]* %3, i64 0, i64 %52
  %54 = load i32, i32* %53, align 4, !tbaa !5
  %55 = icmp eq i32 %32, %54
  %56 = add nuw nsw i64 %42, 3
  %57 = getelementptr inbounds [300 x i32], [300 x i32]* %3, i64 0, i64 %56
  %58 = load i32, i32* %57, align 4, !tbaa !5
  %59 = icmp eq i32 %32, %58
  %60 = select i1 %59, i1 true, i1 %55
  %61 = select i1 %60, i1 true, i1 %51
  %62 = select i1 %61, i1 true, i1 %47
  %63 = select i1 %62, i32 0, i32 %43
  %64 = add nuw nsw i64 %42, 4
  %65 = add i64 %44, -4
  %66 = icmp eq i64 %65, 0
  br i1 %66, label %67, label %41, !llvm.loop !11

67:                                               ; preds = %41, %30
  %68 = phi i32 [ undef, %30 ], [ %63, %41 ]
  %69 = phi i64 [ 1, %30 ], [ %64, %41 ]
  %70 = phi i32 [ 1, %30 ], [ %63, %41 ]
  %71 = icmp eq i64 %37, 0
  br i1 %71, label %83, label %72

72:                                               ; preds = %67, %72
  %73 = phi i64 [ %80, %72 ], [ %69, %67 ]
  %74 = phi i32 [ %79, %72 ], [ %70, %67 ]
  %75 = phi i64 [ %81, %72 ], [ %37, %67 ]
  %76 = getelementptr inbounds [300 x i32], [300 x i32]* %3, i64 0, i64 %73
  %77 = load i32, i32* %76, align 4, !tbaa !5
  %78 = icmp eq i32 %32, %77
  %79 = select i1 %78, i32 0, i32 %74
  %80 = add nuw nsw i64 %73, 1
  %81 = add i64 %75, -1
  %82 = icmp eq i64 %81, 0
  br i1 %82, label %83, label %72, !llvm.loop !12

83:                                               ; preds = %72, %67
  %84 = phi i32 [ %68, %67 ], [ %79, %72 ]
  %85 = icmp eq i32 %84, 1
  br i1 %85, label %86, label %92

86:                                               ; preds = %26, %83
  %87 = add nsw i32 %28, 1
  %88 = getelementptr inbounds [300 x i32], [300 x i32]* %2, i64 0, i64 %27
  %89 = load i32, i32* %88, align 4, !tbaa !5
  %90 = sext i32 %87 to i64
  %91 = getelementptr inbounds [300 x i32], [300 x i32]* %3, i64 0, i64 %90
  store i32 %89, i32* %91, align 4, !tbaa !5
  br label %92

92:                                               ; preds = %83, %86
  %93 = phi i32 [ %87, %86 ], [ %28, %83 ]
  %94 = add nuw nsw i64 %27, 1
  %95 = icmp eq i64 %94, %25
  br i1 %95, label %96, label %26, !llvm.loop !14

96:                                               ; preds = %92
  %97 = icmp eq i32 %93, 1
  br i1 %97, label %113, label %98

98:                                               ; preds = %96
  %99 = icmp sgt i32 %93, 1
  br i1 %99, label %100, label %116

100:                                              ; preds = %98
  %101 = zext i32 %93 to i64
  br label %102

102:                                              ; preds = %100, %102
  %103 = phi i64 [ 1, %100 ], [ %107, %102 ]
  %104 = getelementptr inbounds [300 x i32], [300 x i32]* %3, i64 0, i64 %103
  %105 = load i32, i32* %104, align 4, !tbaa !5
  %106 = call i32 (i8*, ...) @printf(i8* nonnull dereferenceable(1) getelementptr inbounds ([4 x i8], [4 x i8]* @.str.1, i64 0, i64 0), i32 %105)
  %107 = add nuw nsw i64 %103, 1
  %108 = icmp eq i64 %107, %101
  br i1 %108, label %109, label %102, !llvm.loop !15

109:                                              ; preds = %102
  %110 = sext i32 %93 to i64
  %111 = getelementptr inbounds [300 x i32], [300 x i32]* %3, i64 0, i64 %110
  %112 = load i32, i32* %111, align 4, !tbaa !5
  br label %113

113:                                              ; preds = %96, %18, %0, %109
  %114 = phi i32 [ %112, %109 ], [ %20, %96 ], [ %20, %18 ], [ undef, %0 ]
  %115 = call i32 (i8*, ...) @printf(i8* nonnull dereferenceable(1) getelementptr inbounds ([3 x i8], [3 x i8]* @.str, i64 0, i64 0), i32 %114)
  br label %116

116:                                              ; preds = %113, %98
  call void @llvm.lifetime.end.p0i8(i64 1200, i8* nonnull %6) #3
  call void @llvm.lifetime.end.p0i8(i64 1200, i8* nonnull %5) #3
  call void @llvm.lifetime.end.p0i8(i64 4, i8* nonnull %4) #3
  ret i32 0
}

; Function Attrs: argmemonly mustprogress nofree nosync nounwind willreturn
declare void @llvm.lifetime.start.p0i8(i64 immarg, i8* nocapture) #1

; Function Attrs: nofree nounwind
declare noundef i32 @__isoc99_scanf(i8* nocapture noundef readonly, ...) local_unnamed_addr #2

; Function Attrs: nofree nounwind
declare noundef i32 @printf(i8* nocapture noundef readonly, ...) local_unnamed_addr #2

; Function Attrs: argmemonly mustprogress nofree nosync nounwind willreturn
declare void @llvm.lifetime.end.p0i8(i64 immarg, i8* nocapture) #1


!llvm.module.flags = !{!0, !1, !2, !3}
!llvm.ident = !{!4}

!0 = !{i32 1, !"wchar_size", i32 4}
!1 = !{i32 7, !"PIC Level", i32 2}
!2 = !{i32 7, !"PIE Level", i32 2}
!3 = !{i32 7, !"uwtable", i32 1}
!4 = !{!"clang version 13.0.0"}
!5 = !{!6, !6, i64 0}
!6 = !{!"int", !7, i64 0}
!7 = !{!"omnipotent char", !8, i64 0}
!8 = !{!"Simple C/C++ TBAA"}
!9 = distinct !{!9, !10}
!10 = !{!"llvm.loop.mustprogress"}
!11 = distinct !{!11, !10}
!12 = distinct !{!12, !13}
!13 = !{!"llvm.loop.unroll.disable"}
!14 = distinct !{!14, !10}
!15 = distinct !{!15, !10}
